target datalayout = "e-m:e-p270:32:32-p271:32:32-p272:64:64-i64:64-i128:128-f80:128-n8:16:32:64-S128"
target triple = "x86_64-pc-linux-gnu"

%struct.git_hash_algo = type { ptr, i32, i64, i64, i64, ptr, ptr, ptr, ptr, ptr, ptr, ptr, ptr, ptr }

@.str = private unnamed_addr constant [51 x i8] c"SHA-1 appears to be part of a collision attack: %s\00", align 1
@hash_algos = external constant [3 x %struct.git_hash_algo], align 16

; Function Attrs: nounwind uwtable
define dso_local void @git_SHA1DCFinal(ptr noundef %0, ptr noundef %1) #0 {
  %3 = alloca ptr, align 8
  %4 = alloca ptr, align 8
  store ptr %0, ptr %3, align 8, !tbaa !4
  store ptr %1, ptr %4, align 8, !tbaa !9
  %5 = load ptr, ptr %3, align 8, !tbaa !4
  %6 = load ptr, ptr %4, align 8, !tbaa !9
  %7 = call i32 @SHA1DCFinal(ptr noundef %5, ptr noundef %6)
  %8 = icmp ne i32 %7, 0
  br i1 %8, label %10, label %9

9:                                                ; preds = %2
  ret void

10:                                               ; preds = %2
  %11 = load ptr, ptr %3, align 8, !tbaa !4
  %12 = call ptr @hash_to_hex_algop(ptr noundef %11, ptr noundef getelementptr inbounds ([3 x %struct.git_hash_algo], ptr @hash_algos, i64 0, i64 1))
  call void (ptr, ...) @die(ptr noundef @.str, ptr noundef %12) #4
  unreachable
}

declare i32 @SHA1DCFinal(ptr noundef, ptr noundef) #1

; Function Attrs: noreturn
declare void @die(ptr noundef, ...) #2

declare ptr @hash_to_hex_algop(ptr noundef, ptr noundef) #1

; Function Attrs: nounwind uwtable
define dso_local void @git_SHA1DCUpdate(ptr noundef %0, ptr noundef %1, i64 noundef %2) #0 {
  %4 = alloca ptr, align 8
  %5 = alloca ptr, align 8
  %6 = alloca i64, align 8
  %7 = alloca ptr, align 8
  store ptr %0, ptr %4, align 8, !tbaa !9
  store ptr %1, ptr %5, align 8, !tbaa !9
  store i64 %2, ptr %6, align 8, !tbaa !10
  call void @llvm.lifetime.start.p0(i64 8, ptr %7) #5
  %8 = load ptr, ptr %5, align 8, !tbaa !9
  store ptr %8, ptr %7, align 8, !tbaa !4
  br label %9

9:                                                ; preds = %12, %3
  %10 = load i64, ptr %6, align 8, !tbaa !10
  %11 = icmp ugt i64 %10, 2147483647
  br i1 %11, label %12, label %19

12:                                               ; preds = %9
  %13 = load ptr, ptr %4, align 8, !tbaa !9
  %14 = load ptr, ptr %7, align 8, !tbaa !4
  call void @SHA1DCUpdate(ptr noundef %13, ptr noundef %14, i64 noundef 2147483647)
  %15 = load ptr, ptr %7, align 8, !tbaa !4
  %16 = getelementptr inbounds i8, ptr %15, i64 2147483647
  store ptr %16, ptr %7, align 8, !tbaa !4
  %17 = load i64, ptr %6, align 8, !tbaa !10
  %18 = sub i64 %17, 2147483647
  store i64 %18, ptr %6, align 8, !tbaa !10
  br label %9, !llvm.loop !12

19:                                               ; preds = %9
  %20 = load ptr, ptr %4, align 8, !tbaa !9
  %21 = load ptr, ptr %7, align 8, !tbaa !4
  %22 = load i64, ptr %6, align 8, !tbaa !10
  call void @SHA1DCUpdate(ptr noundef %20, ptr noundef %21, i64 noundef %22)
  call void @llvm.lifetime.end.p0(i64 8, ptr %7) #5
  ret void
}

; Function Attrs: nocallback nofree nosync nounwind willreturn memory(argmem: readwrite)
declare void @llvm.lifetime.start.p0(i64 immarg, ptr captures(none)) #3

declare void @SHA1DCUpdate(ptr noundef, ptr noundef, i64 noundef) #1

; Function Attrs: nocallback nofree nosync nounwind willreturn memory(argmem: readwrite)
declare void @llvm.lifetime.end.p0(i64 immarg, ptr captures(none)) #3


!llvm.module.flags = !{!0, !1, !2, !3}

!0 = !{i32 1, !"wchar_size", i32 4}
!1 = !{i32 8, !"PIC Level", i32 2}
!2 = !{i32 7, !"PIE Level", i32 2}
!3 = !{i32 7, !"uwtable", i32 2}
!4 = !{!5, !5, i64 0}
!5 = !{!"p1 omnipotent char", !6, i64 0}
!6 = !{!"any pointer", !7, i64 0}
!7 = !{!"omnipotent char", !8, i64 0}
!8 = !{!"Simple C/C++ TBAA"}
!9 = !{!6, !6, i64 0}
!10 = !{!11, !11, i64 0}
!11 = !{!"long", !7, i64 0}
!12 = distinct !{!12, !13}
!13 = !{!"llvm.loop.mustprogress"}
